; ModuleID = 'source-C-CXX/42/1162.cpp'
source_filename = "source-C-CXX/42/1162.cpp"
target datalayout = "e-m:e-p270:32:32-p271:32:32-p272:64:64-i64:64-f80:128-n8:16:32:64-S128"
target triple = "x86_64-pc-linux-gnu"

%"class.std::ios_base::Init" = type { i8 }
%"class.std::basic_istream" = type { i32 (...)**, i64, %"class.std::basic_ios" }
%"class.std::basic_ios" = type { %"class.std::ios_base", %"class.std::basic_ostream"*, i8, i8, %"class.std::basic_streambuf"*, %"class.std::ctype"*, %"class.std::num_put"*, %"class.std::num_get"* }
%"class.std::ios_base" = type { i32 (...)**, i64, i64, i32, i32, i32, %"struct.std::ios_base::_Callback_list"*, %"struct.std::ios_base::_Words", [8 x %"struct.std::ios_base::_Words"], i32, %"struct.std::ios_base::_Words"*, %"class.std::locale" }
%"struct.std::ios_base::_Callback_list" = type { %"struct.std::ios_base::_Callback_list"*, void (i32, %"class.std::ios_base"*, i32)*, i32, i32 }
%"struct.std::ios_base::_Words" = type { i8*, i64 }
%"class.std::locale" = type { %"class.std::locale::_Impl"* }
%"class.std::locale::_Impl" = type { i32, %"class.std::locale::facet"**, i64, %"class.std::locale::facet"**, i8** }
%"class.std::locale::facet" = type <{ i32 (...)**, i32, [4 x i8] }>
%"class.std::basic_ostream" = type { i32 (...)**, %"class.std::basic_ios" }
%"class.std::basic_streambuf" = type { i32 (...)**, i8*, i8*, i8*, i8*, i8*, i8*, %"class.std::locale" }
%"class.std::ctype" = type <{ %"class.std::locale::facet.base", [4 x i8], %struct.__locale_struct*, i8, [7 x i8], i32*, i32*, i16*, i8, [256 x i8], [256 x i8], i8, [6 x i8] }>
%"class.std::locale::facet.base" = type <{ i32 (...)**, i32 }>
%struct.__locale_struct = type { [13 x %struct.__locale_data*], i16*, i32*, i32*, [13 x i8*] }
%struct.__locale_data = type opaque
%"class.std::num_put" = type { %"class.std::locale::facet.base", [4 x i8] }
%"class.std::num_get" = type { %"class.std::locale::facet.base", [4 x i8] }

@_ZStL8__ioinit = internal global %"class.std::ios_base::Init" zeroinitializer, align 1
@__dso_handle = external hidden global i8
@_ZSt3cin = external global %"class.std::basic_istream", align 8
@_ZSt4cout = external global %"class.std::basic_ostream", align 8
@.str = private unnamed_addr constant [2 x i8] c" \00", align 1
@llvm.global_ctors = appending global [1 x { i32, void ()*, i8* }] [{ i32, void ()*, i8* } { i32 65535, void ()* @_GLOBAL__sub_I_1162.cpp, i8* null }]

declare void @_ZNSt8ios_base4InitC1Ev(%"class.std::ios_base::Init"* nonnull align 1 dereferenceable(1)) unnamed_addr #0

; Function Attrs: nounwind
declare void @_ZNSt8ios_base4InitD1Ev(%"class.std::ios_base::Init"* nonnull align 1 dereferenceable(1)) unnamed_addr #1

; Function Attrs: nofree nounwind
declare i32 @__cxa_atexit(void (i8*)*, i8*, i8*) local_unnamed_addr #2

; Function Attrs: mustprogress norecurse sspstrong uwtable
define dso_local i32 @main() local_unnamed_addr #3 {
  %1 = alloca i32, align 4
  %2 = bitcast i32* %1 to i8*
  call void @llvm.lifetime.start.p0i8(i64 4, i8* nonnull %2) #7
  %3 = call nonnull align 8 dereferenceable(16) %"class.std::basic_istream"* @_ZNSirsERi(%"class.std::basic_istream"* nonnull align 8 dereferenceable(16) @_ZSt3cin, i32* nonnull align 4 dereferenceable(4) %1)
  %4 = load i32, i32* %1, align 4, !tbaa !5
  %5 = icmp slt i32 %4, 6
  br i1 %5, label %74, label %6

6:                                                ; preds = %0, %68
  %7 = phi i32 [ %69, %68 ], [ %4, %0 ]
  %8 = phi i32 [ %73, %68 ], [ -3, %0 ]
  %9 = phi i32 [ %70, %68 ], [ 3, %0 ]
  br label %10

10:                                               ; preds = %6, %14
  %11 = phi i32 [ 2, %6 ], [ %15, %14 ]
  %12 = urem i32 %9, %11
  %13 = icmp eq i32 %12, 0
  br i1 %13, label %17, label %14

14:                                               ; preds = %10
  %15 = add nuw nsw i32 %11, 1
  %16 = icmp eq i32 %15, %9
  br i1 %16, label %19, label %10, !llvm.loop !9

17:                                               ; preds = %10
  %18 = icmp eq i32 %11, %9
  br i1 %18, label %19, label %68

19:                                               ; preds = %14, %17
  %20 = sub nsw i32 %7, %9
  %21 = icmp sgt i32 %20, 2
  br i1 %21, label %22, label %31

22:                                               ; preds = %19
  %23 = add i32 %7, %8
  br label %24

24:                                               ; preds = %22, %28
  %25 = phi i32 [ %29, %28 ], [ 2, %22 ]
  %26 = srem i32 %20, %25
  %27 = icmp eq i32 %26, 0
  br i1 %27, label %31, label %28

28:                                               ; preds = %24
  %29 = add nuw nsw i32 %25, 1
  %30 = icmp eq i32 %29, %23
  br i1 %30, label %31, label %24, !llvm.loop !11

31:                                               ; preds = %28, %24, %19
  %32 = phi i32 [ 2, %19 ], [ %25, %24 ], [ %23, %28 ]
  %33 = icmp eq i32 %20, %32
  br i1 %33, label %34, label %68

34:                                               ; preds = %31
  %35 = call nonnull align 8 dereferenceable(8) %"class.std::basic_ostream"* @_ZNSolsEi(%"class.std::basic_ostream"* nonnull align 8 dereferenceable(8) @_ZSt4cout, i32 %9)
  %36 = call nonnull align 8 dereferenceable(8) %"class.std::basic_ostream"* @_ZSt16__ostream_insertIcSt11char_traitsIcEERSt13basic_ostreamIT_T0_ES6_PKS3_l(%"class.std::basic_ostream"* nonnull align 8 dereferenceable(8) %35, i8* nonnull getelementptr inbounds ([2 x i8], [2 x i8]* @.str, i64 0, i64 0), i64 1)
  %37 = call nonnull align 8 dereferenceable(8) %"class.std::basic_ostream"* @_ZNSolsEi(%"class.std::basic_ostream"* nonnull align 8 dereferenceable(8) %35, i32 %20)
  %38 = bitcast %"class.std::basic_ostream"* %37 to i8**
  %39 = load i8*, i8** %38, align 8, !tbaa !12
  %40 = getelementptr i8, i8* %39, i64 -24
  %41 = bitcast i8* %40 to i64*
  %42 = load i64, i64* %41, align 8
  %43 = bitcast %"class.std::basic_ostream"* %37 to i8*
  %44 = add nsw i64 %42, 240
  %45 = getelementptr inbounds i8, i8* %43, i64 %44
  %46 = bitcast i8* %45 to %"class.std::ctype"**
  %47 = load %"class.std::ctype"*, %"class.std::ctype"** %46, align 8, !tbaa !14
  %48 = icmp eq %"class.std::ctype"* %47, null
  br i1 %48, label %49, label %50

49:                                               ; preds = %34
  call void @_ZSt16__throw_bad_castv() #8
  unreachable

50:                                               ; preds = %34
  %51 = getelementptr inbounds %"class.std::ctype", %"class.std::ctype"* %47, i64 0, i32 8
  %52 = load i8, i8* %51, align 8, !tbaa !18
  %53 = icmp eq i8 %52, 0
  br i1 %53, label %57, label %54

54:                                               ; preds = %50
  %55 = getelementptr inbounds %"class.std::ctype", %"class.std::ctype"* %47, i64 0, i32 9, i64 10
  %56 = load i8, i8* %55, align 1, !tbaa !20
  br label %63

57:                                               ; preds = %50
  call void @_ZNKSt5ctypeIcE13_M_widen_initEv(%"class.std::ctype"* nonnull align 8 dereferenceable(570) %47)
  %58 = bitcast %"class.std::ctype"* %47 to i8 (%"class.std::ctype"*, i8)***
  %59 = load i8 (%"class.std::ctype"*, i8)**, i8 (%"class.std::ctype"*, i8)*** %58, align 8, !tbaa !12
  %60 = getelementptr inbounds i8 (%"class.std::ctype"*, i8)*, i8 (%"class.std::ctype"*, i8)** %59, i64 6
  %61 = load i8 (%"class.std::ctype"*, i8)*, i8 (%"class.std::ctype"*, i8)** %60, align 8
  %62 = call signext i8 %61(%"class.std::ctype"* nonnull align 8 dereferenceable(570) %47, i8 signext 10)
  br label %63

63:                                               ; preds = %54, %57
  %64 = phi i8 [ %56, %54 ], [ %62, %57 ]
  %65 = call nonnull align 8 dereferenceable(8) %"class.std::basic_ostream"* @_ZNSo3putEc(%"class.std::basic_ostream"* nonnull align 8 dereferenceable(8) %37, i8 signext %64)
  %66 = call nonnull align 8 dereferenceable(8) %"class.std::basic_ostream"* @_ZNSo5flushEv(%"class.std::basic_ostream"* nonnull align 8 dereferenceable(8) %65)
  %67 = load i32, i32* %1, align 4, !tbaa !5
  br label %68

68:                                               ; preds = %17, %63, %31
  %69 = phi i32 [ %7, %17 ], [ %67, %63 ], [ %7, %31 ]
  %70 = add nuw nsw i32 %9, 2
  %71 = sdiv i32 %69, 2
  %72 = icmp sgt i32 %70, %71
  %73 = add nsw i32 %8, -2
  br i1 %72, label %74, label %6, !llvm.loop !21

74:                                               ; preds = %68, %0
  call void @llvm.lifetime.end.p0i8(i64 4, i8* nonnull %2) #7
  ret i32 0
}

; Function Attrs: argmemonly mustprogress nofree nosync nounwind willreturn
declare void @llvm.lifetime.start.p0i8(i64 immarg, i8* nocapture) #4

declare nonnull align 8 dereferenceable(16) %"class.std::basic_istream"* @_ZNSirsERi(%"class.std::basic_istream"* nonnull align 8 dereferenceable(16), i32* nonnull align 4 dereferenceable(4)) local_unnamed_addr #0

declare nonnull align 8 dereferenceable(8) %"class.std::basic_ostream"* @_ZNSolsEi(%"class.std::basic_ostream"* nonnull align 8 dereferenceable(8), i32) local_unnamed_addr #0

; Function Attrs: argmemonly mustprogress nofree nosync nounwind willreturn
declare void @llvm.lifetime.end.p0i8(i64 immarg, i8* nocapture) #4

declare nonnull align 8 dereferenceable(8) %"class.std::basic_ostream"* @_ZSt16__ostream_insertIcSt11char_traitsIcEERSt13basic_ostreamIT_T0_ES6_PKS3_l(%"class.std::basic_ostream"* nonnull align 8 dereferenceable(8), i8*, i64) local_unnamed_addr #0

declare nonnull align 8 dereferenceable(8) %"class.std::basic_ostream"* @_ZNSo3putEc(%"class.std::basic_ostream"* nonnull align 8 dereferenceable(8), i8 signext) local_unnamed_addr #0

declare nonnull align 8 dereferenceable(8) %"class.std::basic_ostream"* @_ZNSo5flushEv(%"class.std::basic_ostream"* nonnull align 8 dereferenceable(8)) local_unnamed_addr #0

; Function Attrs: noreturn
declare void @_ZSt16__throw_bad_castv() local_unnamed_addr #5

declare void @_ZNKSt5ctypeIcE13_M_widen_initEv(%"class.std::ctype"* nonnull align 8 dereferenceable(570)) local_unnamed_addr #0

; Function Attrs: sspstrong uwtable
define internal void @_GLOBAL__sub_I_1162.cpp() #6 section ".text.startup" {
  tail call void @_ZNSt8ios_base4InitC1Ev(%"class.std::ios_base::Init"* nonnull align 1 dereferenceable(1) @_ZStL8__ioinit)
  %1 = tail call i32 @__cxa_atexit(void (i8*)* bitcast (void (%"class.std::ios_base::Init"*)* @_ZNSt8ios_base4InitD1Ev to void (i8*)*), i8* getelementptr inbounds (%"class.std::ios_base::Init", %"class.std::ios_base::Init"* @_ZStL8__ioinit, i64 0, i32 0), i8* nonnull @__dso_handle) #7
  ret void
}


!llvm.module.flags = !{!0, !1, !2, !3}
!llvm.ident = !{!4}

!0 = !{i32 1, !"wchar_size", i32 4}
!1 = !{i32 7, !"PIC Level", i32 2}
!2 = !{i32 7, !"PIE Level", i32 2}
!3 = !{i32 7, !"uwtable", i32 1}
!4 = !{!"clang version 13.0.0"}
!5 = !{!6, !6, i64 0}
!6 = !{!"int", !7, i64 0}
!7 = !{!"omnipotent char", !8, i64 0}
!8 = !{!"Simple C++ TBAA"}
!9 = distinct !{!9, !10}
!10 = !{!"llvm.loop.mustprogress"}
!11 = distinct !{!11, !10}
!12 = !{!13, !13, i64 0}
!13 = !{!"vtable pointer", !8, i64 0}
!14 = !{!15, !16, i64 240}
!15 = !{!"_ZTSSt9basic_iosIcSt11char_traitsIcEE", !16, i64 216, !7, i64 224, !17, i64 225, !16, i64 232, !16, i64 240, !16, i64 248, !16, i64 256}
!16 = !{!"any pointer", !7, i64 0}
!17 = !{!"bool", !7, i64 0}
!18 = !{!19, !7, i64 56}
!19 = !{!"_ZTSSt5ctypeIcE", !16, i64 16, !17, i64 24, !16, i64 32, !16, i64 40, !16, i64 48, !7, i64 56, !7, i64 57, !7, i64 313, !7, i64 569}
!20 = !{!7, !7, i64 0}
!21 = distinct !{!21, !10}
